; Function Attrs: null_pointer_is_valid sspstrong uwtable
define hidden i32 @mapi_dissect_struct_SeekRowBookmark_req(ptr noundef %0, i32 noundef %1, ptr noundef %2, ptr noundef %3, ptr noundef %4, ptr noundef %5, i32 noundef %6, i32 %7) local_unnamed_addr #0 {
  %9 = getelementptr inbounds nuw i8, ptr %4, i64 26
  %10 = load i8, ptr %9, align 2, !range !9, !noundef !10
  store i8 1, ptr %9, align 2
  %.not = icmp eq ptr %3, null
  br i1 %.not, label %15, label %11

11:                                               ; preds = %8
  %12 = tail call ptr @proto_tree_add_item(ptr noundef nonnull %3, i32 noundef %6, ptr noundef %0, i32 noundef %1, i32 noundef -1, i32 noundef 0)
  %13 = load i32, ptr @ett_mapi_SeekRowBookmark_req, align 4
  %14 = tail call ptr @proto_item_add_subtree(ptr noundef %12, i32 noundef %13)
  br label %15

15:                                               ; preds = %11, %8
  %.044 = phi ptr [ %14, %11 ], [ null, %8 ]
  %.0 = phi ptr [ %12, %11 ], [ null, %8 ]
  %16 = load i32, ptr @hf_mapi_LogonId, align 4
  %17 = tail call i32 @PIDL_dissect_uint8(ptr noundef %0, i32 noundef %1, ptr noundef %2, ptr noundef %.044, ptr noundef %4, ptr noundef %5, i32 noundef %16, i32 noundef 0)
  %18 = load i32, ptr @hf_mapi_InputHandleIndex, align 4
  %19 = tail call i32 @PIDL_dissect_uint8(ptr noundef %0, i32 noundef %17, ptr noundef %2, ptr noundef %.044, ptr noundef %4, ptr noundef %5, i32 noundef %18, i32 noundef 0)
  %20 = load i32, ptr @hf_mapi_SeekRowBookmark_req_Bookmark, align 4
  %21 = load i8, ptr %9, align 2, !range !9, !noundef !10
  store i8 1, ptr %9, align 2
  %.not.i.i = icmp eq ptr %.044, null
  br i1 %.not.i.i, label %mapi_dissect_element_SeekRowBookmark_req_Bookmark.exit, label %22

22:                                               ; preds = %15
  %23 = tail call ptr @proto_tree_add_item(ptr noundef nonnull %.044, i32 noundef %20, ptr noundef %0, i32 noundef %19, i32 noundef -1, i32 noundef 0)
  %24 = load i32, ptr @ett_mapi_SBinary_short, align 4
  %25 = tail call ptr @proto_item_add_subtree(ptr noundef %23, i32 noundef %24)
  br label %mapi_dissect_element_SeekRowBookmark_req_Bookmark.exit

mapi_dissect_element_SeekRowBookmark_req_Bookmark.exit: ; preds = %15, %22
  %.026.i.i = phi ptr [ %25, %22 ], [ null, %15 ]
  %.0.i.i = phi ptr [ %23, %22 ], [ null, %15 ]
  %26 = load i32, ptr @hf_mapi_SBinary_short_cb, align 4
  %27 = tail call i32 @PIDL_dissect_uint16(ptr noundef %0, i32 noundef %19, ptr noundef %2, ptr noundef %.026.i.i, ptr noundef %4, ptr noundef %5, i32 noundef %26, i32 noundef 0)
  %28 = tail call i32 @dissect_ndr_ucarray(ptr noundef %0, i32 noundef %27, ptr noundef %2, ptr noundef %.026.i.i, ptr noundef %4, ptr noundef %5, ptr noundef nonnull @mapi_dissect_element_SBinary_short_lpb_)
  %29 = sub i32 %28, %19
  tail call void @proto_item_set_len(ptr noundef %.0.i.i, i32 noundef %29)
  store i8 %21, ptr %9, align 2
  %30 = load i32, ptr @hf_mapi_SeekRowBookmark_req_RowCount, align 4
  %31 = tail call i32 @PIDL_dissect_uint32(ptr noundef %0, i32 noundef %28, ptr noundef %2, ptr noundef %.044, ptr noundef %4, ptr noundef %5, i32 noundef %30, i32 noundef 0)
  %32 = load i32, ptr @hf_mapi_SeekRowBookmark_req_WantRowMovedCount, align 4
  %33 = tail call i32 @PIDL_dissect_uint8(ptr noundef %0, i32 noundef %31, ptr noundef %2, ptr noundef %.044, ptr noundef %4, ptr noundef %5, i32 noundef %32, i32 noundef 0)
  %34 = sub i32 %33, %1
  tail call void @proto_item_set_len(ptr noundef %.0, i32 noundef %34)
  store i8 %10, ptr %9, align 2
  ret i32 %33
}